; ModuleID = '7/1054.c'
source_filename = "7/1054.c"
target datalayout = "e-m:e-p270:32:32-p271:32:32-p272:64:64-i64:64-f80:128-n8:16:32:64-S128"
target triple = "x86_64-pc-linux-gnu"

@.str = private unnamed_addr constant [3 x i8] c"%s\00", align 1
@.str.1 = private unnamed_addr constant [3 x i8] c"%c\00", align 1

; Function Attrs: noinline nounwind uwtable
define dso_local i32 @main() #0 {
  %1 = alloca i32, align 4
  %2 = alloca [257 x i8], align 16
  %3 = alloca [257 x i8], align 16
  %4 = alloca [257 x i8], align 16
  %5 = alloca i32, align 4
  %6 = alloca i32, align 4
  %7 = alloca i32, align 4
  %8 = alloca i32, align 4
  %9 = alloca i32, align 4
  %10 = alloca i32, align 4
  store i32 0, i32* %1, align 4
  %11 = getelementptr inbounds [257 x i8], [257 x i8]* %2, i64 0, i64 0
  %12 = call i32 (i8*, ...) @__isoc99_scanf(i8* getelementptr inbounds ([3 x i8], [3 x i8]* @.str, i64 0, i64 0), i8* %11)
  %13 = getelementptr inbounds [257 x i8], [257 x i8]* %3, i64 0, i64 0
  %14 = call i32 (i8*, ...) @__isoc99_scanf(i8* getelementptr inbounds ([3 x i8], [3 x i8]* @.str, i64 0, i64 0), i8* %13)
  %15 = getelementptr inbounds [257 x i8], [257 x i8]* %4, i64 0, i64 0
  %16 = call i32 (i8*, ...) @__isoc99_scanf(i8* getelementptr inbounds ([3 x i8], [3 x i8]* @.str, i64 0, i64 0), i8* %15)
  store i32 0, i32* %5, align 4
  br label %17

17:                                               ; preds = %145, %0
  %18 = load i32, i32* %5, align 4
  %19 = sext i32 %18 to i64
  %20 = getelementptr inbounds [257 x i8], [257 x i8]* %2, i64 0, i64 %19
  %21 = load i8, i8* %20, align 1
  %22 = sext i8 %21 to i32
  %23 = icmp ne i32 %22, 0
  br i1 %23, label %24, label %148

24:                                               ; preds = %17
  store i32 0, i32* %6, align 4
  %25 = getelementptr inbounds [257 x i8], [257 x i8]* %3, i64 0, i64 0
  %26 = load i8, i8* %25, align 16
  %27 = sext i8 %26 to i32
  %28 = load i32, i32* %5, align 4
  %29 = sext i32 %28 to i64
  %30 = getelementptr inbounds [257 x i8], [257 x i8]* %2, i64 0, i64 %29
  %31 = load i8, i8* %30, align 1
  %32 = sext i8 %31 to i32
  %33 = icmp eq i32 %27, %32
  br i1 %33, label %34, label %62

34:                                               ; preds = %24
  store i32 1, i32* %6, align 4
  br label %35

35:                                               ; preds = %58, %34
  %36 = load i32, i32* %6, align 4
  %37 = sext i32 %36 to i64
  %38 = getelementptr inbounds [257 x i8], [257 x i8]* %3, i64 0, i64 %37
  %39 = load i8, i8* %38, align 1
  %40 = sext i8 %39 to i32
  %41 = icmp ne i32 %40, 0
  br i1 %41, label %42, label %61

42:                                               ; preds = %35
  %43 = load i32, i32* %6, align 4
  %44 = sext i32 %43 to i64
  %45 = getelementptr inbounds [257 x i8], [257 x i8]* %3, i64 0, i64 %44
  %46 = load i8, i8* %45, align 1
  %47 = sext i8 %46 to i32
  %48 = load i32, i32* %5, align 4
  %49 = load i32, i32* %6, align 4
  %50 = add nsw i32 %48, %49
  %51 = sext i32 %50 to i64
  %52 = getelementptr inbounds [257 x i8], [257 x i8]* %2, i64 0, i64 %51
  %53 = load i8, i8* %52, align 1
  %54 = sext i8 %53 to i32
  %55 = icmp ne i32 %47, %54
  br i1 %55, label %56, label %57

56:                                               ; preds = %42
  br label %61

57:                                               ; preds = %42
  br label %58

58:                                               ; preds = %57
  %59 = load i32, i32* %6, align 4
  %60 = add nsw i32 %59, 1
  store i32 %60, i32* %6, align 4
  br label %35

61:                                               ; preds = %56, %35
  br label %62

62:                                               ; preds = %61, %24
  %63 = load i32, i32* %6, align 4
  %64 = sext i32 %63 to i64
  %65 = getelementptr inbounds [257 x i8], [257 x i8]* %3, i64 0, i64 %64
  %66 = load i8, i8* %65, align 1
  %67 = sext i8 %66 to i32
  %68 = icmp eq i32 %67, 0
  br i1 %68, label %69, label %144

69:                                               ; preds = %62
  store i32 0, i32* %9, align 4
  store i32 0, i32* %8, align 4
  store i32 0, i32* %7, align 4
  br label %70

70:                                               ; preds = %77, %69
  %71 = load i32, i32* %7, align 4
  %72 = sext i32 %71 to i64
  %73 = getelementptr inbounds [257 x i8], [257 x i8]* %2, i64 0, i64 %72
  %74 = load i8, i8* %73, align 1
  %75 = sext i8 %74 to i32
  %76 = icmp ne i32 %75, 0
  br i1 %76, label %77, label %80

77:                                               ; preds = %70
  %78 = load i32, i32* %7, align 4
  %79 = add nsw i32 %78, 1
  store i32 %79, i32* %7, align 4
  br label %70

80:                                               ; preds = %70
  br label %81

81:                                               ; preds = %88, %80
  %82 = load i32, i32* %8, align 4
  %83 = sext i32 %82 to i64
  %84 = getelementptr inbounds [257 x i8], [257 x i8]* %3, i64 0, i64 %83
  %85 = load i8, i8* %84, align 1
  %86 = sext i8 %85 to i32
  %87 = icmp ne i32 %86, 0
  br i1 %87, label %88, label %91

88:                                               ; preds = %81
  %89 = load i32, i32* %8, align 4
  %90 = add nsw i32 %89, 1
  store i32 %90, i32* %8, align 4
  br label %81

91:                                               ; preds = %81
  br label %92

92:                                               ; preds = %99, %91
  %93 = load i32, i32* %9, align 4
  %94 = sext i32 %93 to i64
  %95 = getelementptr inbounds [257 x i8], [257 x i8]* %4, i64 0, i64 %94
  %96 = load i8, i8* %95, align 1
  %97 = sext i8 %96 to i32
  %98 = icmp ne i32 %97, 0
  br i1 %98, label %99, label %102

99:                                               ; preds = %92
  %100 = load i32, i32* %9, align 4
  %101 = add nsw i32 %100, 1
  store i32 %101, i32* %9, align 4
  br label %92

102:                                              ; preds = %92
  %103 = load i32, i32* %5, align 4
  %104 = load i32, i32* %8, align 4
  %105 = add nsw i32 %103, %104
  store i32 %105, i32* %10, align 4
  br label %106

106:                                              ; preds = %122, %102
  %107 = load i32, i32* %10, align 4
  %108 = load i32, i32* %7, align 4
  %109 = icmp slt i32 %107, %108
  br i1 %109, label %110, label %125

110:                                              ; preds = %106
  %111 = load i32, i32* %10, align 4
  %112 = sext i32 %111 to i64
  %113 = getelementptr inbounds [257 x i8], [257 x i8]* %2, i64 0, i64 %112
  %114 = load i8, i8* %113, align 1
  %115 = load i32, i32* %10, align 4
  %116 = load i32, i32* %9, align 4
  %117 = add nsw i32 %115, %116
  %118 = load i32, i32* %8, align 4
  %119 = sub nsw i32 %117, %118
  %120 = sext i32 %119 to i64
  %121 = getelementptr inbounds [257 x i8], [257 x i8]* %2, i64 0, i64 %120
  store i8 %114, i8* %121, align 1
  br label %122

122:                                              ; preds = %110
  %123 = load i32, i32* %10, align 4
  %124 = add nsw i32 %123, 1
  store i32 %124, i32* %10, align 4
  br label %106

125:                                              ; preds = %106
  store i32 0, i32* %10, align 4
  br label %126

126:                                              ; preds = %140, %125
  %127 = load i32, i32* %10, align 4
  %128 = load i32, i32* %9, align 4
  %129 = icmp slt i32 %127, %128
  br i1 %129, label %130, label %143

130:                                              ; preds = %126
  %131 = load i32, i32* %10, align 4
  %132 = sext i32 %131 to i64
  %133 = getelementptr inbounds [257 x i8], [257 x i8]* %4, i64 0, i64 %132
  %134 = load i8, i8* %133, align 1
  %135 = load i32, i32* %5, align 4
  %136 = load i32, i32* %10, align 4
  %137 = add nsw i32 %135, %136
  %138 = sext i32 %137 to i64
  %139 = getelementptr inbounds [257 x i8], [257 x i8]* %2, i64 0, i64 %138
  store i8 %134, i8* %139, align 1
  br label %140

140:                                              ; preds = %130
  %141 = load i32, i32* %10, align 4
  %142 = add nsw i32 %141, 1
  store i32 %142, i32* %10, align 4
  br label %126

143:                                              ; preds = %126
  br label %148

144:                                              ; preds = %62
  br label %145

145:                                              ; preds = %144
  %146 = load i32, i32* %5, align 4
  %147 = add nsw i32 %146, 1
  store i32 %147, i32* %5, align 4
  br label %17

148:                                              ; preds = %143, %17
  store i32 0, i32* %10, align 4
  br label %149

149:                                              ; preds = %156, %148
  %150 = load i32, i32* %10, align 4
  %151 = sext i32 %150 to i64
  %152 = getelementptr inbounds [257 x i8], [257 x i8]* %2, i64 0, i64 %151
  %153 = load i8, i8* %152, align 1
  %154 = sext i8 %153 to i32
  %155 = icmp ne i32 %154, 0
  br i1 %155, label %156, label %165

156:                                              ; preds = %149
  %157 = load i32, i32* %10, align 4
  %158 = sext i32 %157 to i64
  %159 = getelementptr inbounds [257 x i8], [257 x i8]* %2, i64 0, i64 %158
  %160 = load i8, i8* %159, align 1
  %161 = sext i8 %160 to i32
  %162 = call i32 (i8*, ...) @printf(i8* getelementptr inbounds ([3 x i8], [3 x i8]* @.str.1, i64 0, i64 0), i32 %161)
  %163 = load i32, i32* %10, align 4
  %164 = add nsw i32 %163, 1
  store i32 %164, i32* %10, align 4
  br label %149

165:                                              ; preds = %149
  %166 = load i32, i32* %1, align 4
  ret i32 %166
}

declare dso_local i32 @__isoc99_scanf(i8*, ...) #1

declare dso_local i32 @printf(i8*, ...) #1


!llvm.module.flags = !{!0}
!llvm.ident = !{!1}

!0 = !{i32 1, !"wchar_size", i32 4}
!1 = !{!"clang version 10.0.0-4ubuntu1 "}
